; ModuleID = '53/103.c'
source_filename = "53/103.c"
target datalayout = "e-m:e-p270:32:32-p271:32:32-p272:64:64-i64:64-f80:128-n8:16:32:64-S128"
target triple = "x86_64-pc-linux-gnu"

@.str = private unnamed_addr constant [3 x i8] c"%d\00", align 1
@.str.1 = private unnamed_addr constant [4 x i8] c"%d,\00", align 1

; Function Attrs: noinline nounwind uwtable
define dso_local i32 @main() #0 {
  %1 = alloca i32, align 4
  %2 = alloca i32, align 4
  %3 = alloca [300 x i32], align 16
  %4 = alloca i32, align 4
  %5 = alloca [300 x i32], align 16
  %6 = alloca i32, align 4
  %7 = alloca i32, align 4
  store i32 0, i32* %1, align 4
  store i32 0, i32* %6, align 4
  %8 = call i32 (i8*, ...) @__isoc99_scanf(i8* getelementptr inbounds ([3 x i8], [3 x i8]* @.str, i64 0, i64 0), i32* %2)
  store i32 0, i32* %4, align 4
  br label %9

9:                                                ; preds = %19, %0
  %10 = load i32, i32* %4, align 4
  %11 = load i32, i32* %2, align 4
  %12 = icmp slt i32 %10, %11
  br i1 %12, label %13, label %22

13:                                               ; preds = %9
  %14 = getelementptr inbounds [300 x i32], [300 x i32]* %3, i64 0, i64 0
  %15 = load i32, i32* %4, align 4
  %16 = sext i32 %15 to i64
  %17 = getelementptr inbounds i32, i32* %14, i64 %16
  %18 = call i32 (i8*, ...) @__isoc99_scanf(i8* getelementptr inbounds ([3 x i8], [3 x i8]* @.str, i64 0, i64 0), i32* %17)
  br label %19

19:                                               ; preds = %13
  %20 = load i32, i32* %4, align 4
  %21 = add nsw i32 %20, 1
  store i32 %21, i32* %4, align 4
  br label %9

22:                                               ; preds = %9
  store i32 0, i32* %4, align 4
  br label %23

23:                                               ; preds = %85, %22
  %24 = load i32, i32* %4, align 4
  %25 = load i32, i32* %2, align 4
  %26 = icmp slt i32 %24, %25
  br i1 %26, label %27, label %88

27:                                               ; preds = %23
  %28 = load i32, i32* %4, align 4
  %29 = icmp eq i32 %28, 0
  br i1 %29, label %30, label %42

30:                                               ; preds = %27
  %31 = getelementptr inbounds [300 x i32], [300 x i32]* %3, i64 0, i64 0
  %32 = load i32, i32* %4, align 4
  %33 = sext i32 %32 to i64
  %34 = getelementptr inbounds i32, i32* %31, i64 %33
  %35 = load i32, i32* %34, align 4
  %36 = getelementptr inbounds [300 x i32], [300 x i32]* %5, i64 0, i64 0
  %37 = load i32, i32* %6, align 4
  %38 = sext i32 %37 to i64
  %39 = getelementptr inbounds i32, i32* %36, i64 %38
  store i32 %35, i32* %39, align 4
  %40 = load i32, i32* %6, align 4
  %41 = add nsw i32 %40, 1
  store i32 %41, i32* %6, align 4
  br label %42

42:                                               ; preds = %30, %27
  %43 = load i32, i32* %4, align 4
  %44 = icmp sgt i32 %43, 0
  br i1 %44, label %45, label %84

45:                                               ; preds = %42
  store i32 0, i32* %7, align 4
  br label %46

46:                                               ; preds = %80, %45
  %47 = load i32, i32* %7, align 4
  %48 = load i32, i32* %6, align 4
  %49 = icmp sle i32 %47, %48
  br i1 %49, label %50, label %83

50:                                               ; preds = %46
  %51 = getelementptr inbounds [300 x i32], [300 x i32]* %3, i64 0, i64 0
  %52 = load i32, i32* %4, align 4
  %53 = sext i32 %52 to i64
  %54 = getelementptr inbounds i32, i32* %51, i64 %53
  %55 = load i32, i32* %54, align 4
  %56 = getelementptr inbounds [300 x i32], [300 x i32]* %5, i64 0, i64 0
  %57 = load i32, i32* %7, align 4
  %58 = sext i32 %57 to i64
  %59 = getelementptr inbounds i32, i32* %56, i64 %58
  %60 = load i32, i32* %59, align 4
  %61 = icmp eq i32 %55, %60
  br i1 %61, label %62, label %63

62:                                               ; preds = %50
  br label %83

63:                                               ; preds = %50
  %64 = load i32, i32* %7, align 4
  %65 = load i32, i32* %6, align 4
  %66 = icmp eq i32 %64, %65
  br i1 %66, label %67, label %79

67:                                               ; preds = %63
  %68 = getelementptr inbounds [300 x i32], [300 x i32]* %3, i64 0, i64 0
  %69 = load i32, i32* %4, align 4
  %70 = sext i32 %69 to i64
  %71 = getelementptr inbounds i32, i32* %68, i64 %70
  %72 = load i32, i32* %71, align 4
  %73 = getelementptr inbounds [300 x i32], [300 x i32]* %5, i64 0, i64 0
  %74 = load i32, i32* %6, align 4
  %75 = sext i32 %74 to i64
  %76 = getelementptr inbounds i32, i32* %73, i64 %75
  store i32 %72, i32* %76, align 4
  %77 = load i32, i32* %6, align 4
  %78 = add nsw i32 %77, 1
  store i32 %78, i32* %6, align 4
  br label %83

79:                                               ; preds = %63
  br label %80

80:                                               ; preds = %79
  %81 = load i32, i32* %7, align 4
  %82 = add nsw i32 %81, 1
  store i32 %82, i32* %7, align 4
  br label %46

83:                                               ; preds = %67, %62, %46
  br label %84

84:                                               ; preds = %83, %42
  br label %85

85:                                               ; preds = %84
  %86 = load i32, i32* %4, align 4
  %87 = add nsw i32 %86, 1
  store i32 %87, i32* %4, align 4
  br label %23

88:                                               ; preds = %23
  store i32 0, i32* %4, align 4
  br label %89

89:                                               ; preds = %101, %88
  %90 = load i32, i32* %4, align 4
  %91 = load i32, i32* %6, align 4
  %92 = sub nsw i32 %91, 1
  %93 = icmp slt i32 %90, %92
  br i1 %93, label %94, label %104

94:                                               ; preds = %89
  %95 = getelementptr inbounds [300 x i32], [300 x i32]* %5, i64 0, i64 0
  %96 = load i32, i32* %4, align 4
  %97 = sext i32 %96 to i64
  %98 = getelementptr inbounds i32, i32* %95, i64 %97
  %99 = load i32, i32* %98, align 4
  %100 = call i32 (i8*, ...) @printf(i8* getelementptr inbounds ([4 x i8], [4 x i8]* @.str.1, i64 0, i64 0), i32 %99)
  br label %101

101:                                              ; preds = %94
  %102 = load i32, i32* %4, align 4
  %103 = add nsw i32 %102, 1
  store i32 %103, i32* %4, align 4
  br label %89

104:                                              ; preds = %89
  %105 = getelementptr inbounds [300 x i32], [300 x i32]* %5, i64 0, i64 0
  %106 = load i32, i32* %6, align 4
  %107 = sext i32 %106 to i64
  %108 = getelementptr inbounds i32, i32* %105, i64 %107
  %109 = getelementptr inbounds i32, i32* %108, i64 -1
  %110 = load i32, i32* %109, align 4
  %111 = call i32 (i8*, ...) @printf(i8* getelementptr inbounds ([3 x i8], [3 x i8]* @.str, i64 0, i64 0), i32 %110)
  ret i32 0
}

declare dso_local i32 @__isoc99_scanf(i8*, ...) #1

declare dso_local i32 @printf(i8*, ...) #1


!llvm.module.flags = !{!0}
!llvm.ident = !{!1}

!0 = !{i32 1, !"wchar_size", i32 4}
!1 = !{!"clang version 10.0.0-4ubuntu1 "}
